target datalayout = "e-m:e-p270:32:32-p271:32:32-p272:64:64-i64:64-i128:128-f80:128-n8:16:32:64-S128"
target triple = "x86_64-pc-linux-gnu"

%union.ListCell = type { ptr }
%struct.ForEachState = type { ptr, i32 }
%struct.List = type { i32, i32, i32, ptr, [0 x %union.ListCell] }
%struct.JsonObjectConstructor = type { i32, ptr, ptr, i8, i8, i32 }
%struct.JsonKeyValue = type { i32, ptr, ptr }
%struct.JsonReturning = type { i32, ptr, i32, i32 }
%struct.JsonFormat = type { i32, i32, i32, i32 }

@.str.134 = private unnamed_addr constant [14 x i8] c"JSON_OBJECT()\00", align 1

; Function Attrs: nounwind uwtable
define internal ptr @transformJsonConstructorOutput(ptr noundef %0, ptr noundef %1, ptr noundef %2) #0 {
  %4 = alloca ptr, align 8
  %5 = alloca ptr, align 8
  %6 = alloca ptr, align 8
  %7 = alloca ptr, align 8
  %8 = alloca ptr, align 8
  %9 = alloca i8, align 1
  %10 = alloca %struct.ForEachState, align 8
  %11 = alloca i32, align 4
  %12 = alloca ptr, align 8
  %13 = alloca i32, align 4
  store ptr %0, ptr %4, align 8
  store ptr %1, ptr %5, align 8
  store ptr %2, ptr %6, align 8
  call void @llvm.lifetime.start.p0(i64 8, ptr %7) #8
  %14 = load ptr, ptr %4, align 8
  %15 = load ptr, ptr %5, align 8
  %16 = call ptr @transformJsonOutput(ptr noundef %14, ptr noundef %15, i1 noundef zeroext true)
  store ptr %16, ptr %7, align 8
  %17 = load ptr, ptr %7, align 8
  %18 = getelementptr inbounds nuw %struct.JsonReturning, ptr %17, i32 0, i32 2
  %19 = load i32, ptr %18, align 8
  %20 = icmp ne i32 %19, 0
  br i1 %20, label %98, label %21

21:                                               ; preds = %3
  call void @llvm.lifetime.start.p0(i64 8, ptr %8) #8
  call void @llvm.lifetime.start.p0(i64 1, ptr %9) #8
  store i8 0, ptr %9, align 1
  call void @llvm.lifetime.start.p0(i64 16, ptr %10) #8
  %22 = getelementptr inbounds nuw %struct.ForEachState, ptr %10, i32 0, i32 0
  %23 = load ptr, ptr %6, align 8
  store ptr %23, ptr %22, align 8
  %24 = getelementptr inbounds nuw %struct.ForEachState, ptr %10, i32 0, i32 1
  store i32 0, ptr %24, align 8
  %25 = getelementptr i8, ptr %10, i64 12
  call void @llvm.memset.p0.i64(ptr align 4 %25, i8 0, i64 4, i1 false)
  br label %26

26:                                               ; preds = %73, %21
  %27 = getelementptr inbounds nuw %struct.ForEachState, ptr %10, i32 0, i32 0
  %28 = load ptr, ptr %27, align 8
  %29 = icmp ne ptr %28, null
  br i1 %29, label %30, label %47

30:                                               ; preds = %26
  %31 = getelementptr inbounds nuw %struct.ForEachState, ptr %10, i32 0, i32 1
  %32 = load i32, ptr %31, align 8
  %33 = getelementptr inbounds nuw %struct.ForEachState, ptr %10, i32 0, i32 0
  %34 = load ptr, ptr %33, align 8
  %35 = getelementptr inbounds nuw %struct.List, ptr %34, i32 0, i32 1
  %36 = load i32, ptr %35, align 4
  %37 = icmp slt i32 %32, %36
  br i1 %37, label %38, label %47

38:                                               ; preds = %30
  %39 = getelementptr inbounds nuw %struct.ForEachState, ptr %10, i32 0, i32 0
  %40 = load ptr, ptr %39, align 8
  %41 = getelementptr inbounds nuw %struct.List, ptr %40, i32 0, i32 3
  %42 = load ptr, ptr %41, align 8
  %43 = getelementptr inbounds nuw %struct.ForEachState, ptr %10, i32 0, i32 1
  %44 = load i32, ptr %43, align 8
  %45 = sext i32 %44 to i64
  %46 = getelementptr inbounds %union.ListCell, ptr %42, i64 %45
  store ptr %46, ptr %8, align 8
  br label %48

47:                                               ; preds = %30, %26
  store ptr null, ptr %8, align 8
  br label %48

48:                                               ; preds = %47, %38
  %49 = phi i32 [ 1, %38 ], [ 0, %47 ]
  %50 = icmp ne i32 %49, 0
  br i1 %50, label %52, label %51

51:                                               ; preds = %48
  store i32 2, ptr %11, align 4
  br label %77

52:                                               ; preds = %48
  call void @llvm.lifetime.start.p0(i64 8, ptr %12) #8
  %53 = load ptr, ptr %8, align 8
  %54 = load ptr, ptr %53, align 8
  store ptr %54, ptr %12, align 8
  call void @llvm.lifetime.start.p0(i64 4, ptr %13) #8
  %55 = load ptr, ptr %12, align 8
  %56 = call i32 @exprType(ptr noundef %55)
  store i32 %56, ptr %13, align 4
  %57 = load i32, ptr %13, align 4
  %58 = icmp eq i32 %57, 3802
  %59 = zext i1 %58 to i32
  %60 = load i8, ptr %9, align 1, !range !6, !noundef !7
  %61 = trunc i8 %60 to i1
  %62 = zext i1 %61 to i32
  %63 = or i32 %62, %59
  %64 = icmp ne i32 %63, 0
  %65 = zext i1 %64 to i8
  store i8 %65, ptr %9, align 1
  %66 = load i8, ptr %9, align 1, !range !6, !noundef !7
  %67 = trunc i8 %66 to i1
  br i1 %67, label %68, label %69

68:                                               ; preds = %52
  store i32 2, ptr %11, align 4
  br label %70

69:                                               ; preds = %52
  store i32 0, ptr %11, align 4
  br label %70

70:                                               ; preds = %69, %68
  call void @llvm.lifetime.end.p0(i64 4, ptr %13) #8
  call void @llvm.lifetime.end.p0(i64 8, ptr %12) #8
  %71 = load i32, ptr %11, align 4
  switch i32 %71, label %77 [
    i32 0, label %72
  ]

72:                                               ; preds = %70
  br label %73

73:                                               ; preds = %72
  %74 = getelementptr inbounds nuw %struct.ForEachState, ptr %10, i32 0, i32 1
  %75 = load i32, ptr %74, align 8
  %76 = add i32 %75, 1
  store i32 %76, ptr %74, align 8
  br label %26, !llvm.loop !37

77:                                               ; preds = %70, %51
  call void @llvm.lifetime.end.p0(i64 16, ptr %10) #8
  br label %78

78:                                               ; preds = %77
  %79 = load i8, ptr %9, align 1, !range !6, !noundef !7
  %80 = trunc i8 %79 to i1
  br i1 %80, label %81, label %88

81:                                               ; preds = %78
  %82 = load ptr, ptr %7, align 8
  %83 = getelementptr inbounds nuw %struct.JsonReturning, ptr %82, i32 0, i32 2
  store i32 3802, ptr %83, align 8
  %84 = load ptr, ptr %7, align 8
  %85 = getelementptr inbounds nuw %struct.JsonReturning, ptr %84, i32 0, i32 1
  %86 = load ptr, ptr %85, align 8
  %87 = getelementptr inbounds nuw %struct.JsonFormat, ptr %86, i32 0, i32 1
  store i32 2, ptr %87, align 4
  br label %95

88:                                               ; preds = %78
  %89 = load ptr, ptr %7, align 8
  %90 = getelementptr inbounds nuw %struct.JsonReturning, ptr %89, i32 0, i32 2
  store i32 114, ptr %90, align 8
  %91 = load ptr, ptr %7, align 8
  %92 = getelementptr inbounds nuw %struct.JsonReturning, ptr %91, i32 0, i32 1
  %93 = load ptr, ptr %92, align 8
  %94 = getelementptr inbounds nuw %struct.JsonFormat, ptr %93, i32 0, i32 1
  store i32 1, ptr %94, align 4
  br label %95

95:                                               ; preds = %88, %81
  %96 = load ptr, ptr %7, align 8
  %97 = getelementptr inbounds nuw %struct.JsonReturning, ptr %96, i32 0, i32 3
  store i32 -1, ptr %97, align 4
  call void @llvm.lifetime.end.p0(i64 1, ptr %9) #8
  call void @llvm.lifetime.end.p0(i64 8, ptr %8) #8
  br label %98

98:                                               ; preds = %95, %3
  %99 = load ptr, ptr %7, align 8
  store i32 1, ptr %11, align 4
  call void @llvm.lifetime.end.p0(i64 8, ptr %7) #8
  ret ptr %99
}

; Function Attrs: nounwind uwtable
define internal ptr @transformJsonObjectConstructor(ptr noundef %0, ptr noundef %1) #0 {
  %3 = alloca ptr, align 8
  %4 = alloca ptr, align 8
  %5 = alloca ptr, align 8
  %6 = alloca ptr, align 8
  %7 = alloca ptr, align 8
  %8 = alloca %struct.ForEachState, align 8
  %9 = alloca ptr, align 8
  %10 = alloca ptr, align 8
  %11 = alloca ptr, align 8
  store ptr %0, ptr %3, align 8
  store ptr %1, ptr %4, align 8
  call void @llvm.lifetime.start.p0(i64 8, ptr %5) #8
  call void @llvm.lifetime.start.p0(i64 8, ptr %6) #8
  store ptr null, ptr %6, align 8
  %12 = load ptr, ptr %4, align 8
  %13 = getelementptr inbounds nuw %struct.JsonObjectConstructor, ptr %12, i32 0, i32 1
  %14 = load ptr, ptr %13, align 8
  %15 = icmp ne ptr %14, null
  br i1 %15, label %16, label %73

16:                                               ; preds = %2
  call void @llvm.lifetime.start.p0(i64 8, ptr %7) #8
  call void @llvm.lifetime.start.p0(i64 16, ptr %8) #8
  %17 = getelementptr inbounds nuw %struct.ForEachState, ptr %8, i32 0, i32 0
  %18 = load ptr, ptr %4, align 8
  %19 = getelementptr inbounds nuw %struct.JsonObjectConstructor, ptr %18, i32 0, i32 1
  %20 = load ptr, ptr %19, align 8
  store ptr %20, ptr %17, align 8
  %21 = getelementptr inbounds nuw %struct.ForEachState, ptr %8, i32 0, i32 1
  store i32 0, ptr %21, align 8
  %22 = getelementptr i8, ptr %8, i64 12
  call void @llvm.memset.p0.i64(ptr align 4 %22, i8 0, i64 4, i1 false)
  br label %23

23:                                               ; preds = %68, %16
  %24 = getelementptr inbounds nuw %struct.ForEachState, ptr %8, i32 0, i32 0
  %25 = load ptr, ptr %24, align 8
  %26 = icmp ne ptr %25, null
  br i1 %26, label %27, label %44

27:                                               ; preds = %23
  %28 = getelementptr inbounds nuw %struct.ForEachState, ptr %8, i32 0, i32 1
  %29 = load i32, ptr %28, align 8
  %30 = getelementptr inbounds nuw %struct.ForEachState, ptr %8, i32 0, i32 0
  %31 = load ptr, ptr %30, align 8
  %32 = getelementptr inbounds nuw %struct.List, ptr %31, i32 0, i32 1
  %33 = load i32, ptr %32, align 4
  %34 = icmp slt i32 %29, %33
  br i1 %34, label %35, label %44

35:                                               ; preds = %27
  %36 = getelementptr inbounds nuw %struct.ForEachState, ptr %8, i32 0, i32 0
  %37 = load ptr, ptr %36, align 8
  %38 = getelementptr inbounds nuw %struct.List, ptr %37, i32 0, i32 3
  %39 = load ptr, ptr %38, align 8
  %40 = getelementptr inbounds nuw %struct.ForEachState, ptr %8, i32 0, i32 1
  %41 = load i32, ptr %40, align 8
  %42 = sext i32 %41 to i64
  %43 = getelementptr inbounds %union.ListCell, ptr %39, i64 %42
  store ptr %43, ptr %7, align 8
  br label %45

44:                                               ; preds = %27, %23
  store ptr null, ptr %7, align 8
  br label %45

45:                                               ; preds = %44, %35
  %46 = phi i32 [ 1, %35 ], [ 0, %44 ]
  %47 = icmp ne i32 %46, 0
  br i1 %47, label %49, label %48

48:                                               ; preds = %45
  call void @llvm.lifetime.end.p0(i64 16, ptr %8) #8
  br label %72

49:                                               ; preds = %45
  call void @llvm.lifetime.start.p0(i64 8, ptr %9) #8
  %50 = load ptr, ptr %7, align 8
  %51 = load ptr, ptr %50, align 8
  store ptr %51, ptr %9, align 8
  call void @llvm.lifetime.start.p0(i64 8, ptr %10) #8
  %52 = load ptr, ptr %3, align 8
  %53 = load ptr, ptr %9, align 8
  %54 = getelementptr inbounds nuw %struct.JsonKeyValue, ptr %53, i32 0, i32 1
  %55 = load ptr, ptr %54, align 8
  %56 = call ptr @transformExprRecurse(ptr noundef %52, ptr noundef %55)
  store ptr %56, ptr %10, align 8
  call void @llvm.lifetime.start.p0(i64 8, ptr %11) #8
  %57 = load ptr, ptr %3, align 8
  %58 = load ptr, ptr %9, align 8
  %59 = getelementptr inbounds nuw %struct.JsonKeyValue, ptr %58, i32 0, i32 2
  %60 = load ptr, ptr %59, align 8
  %61 = call ptr @transformJsonValueExpr(ptr noundef %57, ptr noundef @.str.134, ptr noundef %60, i32 noundef 0, i32 noundef 0, i1 noundef zeroext false)
  store ptr %61, ptr %11, align 8
  %62 = load ptr, ptr %6, align 8
  %63 = load ptr, ptr %10, align 8
  %64 = call ptr @lappend(ptr noundef %62, ptr noundef %63)
  store ptr %64, ptr %6, align 8
  %65 = load ptr, ptr %6, align 8
  %66 = load ptr, ptr %11, align 8
  %67 = call ptr @lappend(ptr noundef %65, ptr noundef %66)
  store ptr %67, ptr %6, align 8
  call void @llvm.lifetime.end.p0(i64 8, ptr %11) #8
  call void @llvm.lifetime.end.p0(i64 8, ptr %10) #8
  call void @llvm.lifetime.end.p0(i64 8, ptr %9) #8
  br label %68

68:                                               ; preds = %49
  %69 = getelementptr inbounds nuw %struct.ForEachState, ptr %8, i32 0, i32 1
  %70 = load i32, ptr %69, align 8
  %71 = add i32 %70, 1
  store i32 %71, ptr %69, align 8
  br label %23, !llvm.loop !28

72:                                               ; preds = %48
  call void @llvm.lifetime.end.p0(i64 8, ptr %7) #8
  br label %73

73:                                               ; preds = %72, %2
  %74 = load ptr, ptr %3, align 8
  %75 = load ptr, ptr %4, align 8
  %76 = getelementptr inbounds nuw %struct.JsonObjectConstructor, ptr %75, i32 0, i32 2
  %77 = load ptr, ptr %76, align 8
  %78 = load ptr, ptr %6, align 8
  %79 = call ptr @transformJsonConstructorOutput(ptr noundef %74, ptr noundef %77, ptr noundef %78)
  store ptr %79, ptr %5, align 8
  %80 = load ptr, ptr %3, align 8
  %81 = load ptr, ptr %6, align 8
  %82 = load ptr, ptr %5, align 8
  %83 = load ptr, ptr %4, align 8
  %84 = getelementptr inbounds nuw %struct.JsonObjectConstructor, ptr %83, i32 0, i32 4
  %85 = load i8, ptr %84, align 1, !range !6, !noundef !7
  %86 = trunc i8 %85 to i1
  %87 = load ptr, ptr %4, align 8
  %88 = getelementptr inbounds nuw %struct.JsonObjectConstructor, ptr %87, i32 0, i32 3
  %89 = load i8, ptr %88, align 8, !range !6, !noundef !7
  %90 = trunc i8 %89 to i1
  %91 = load ptr, ptr %4, align 8
  %92 = getelementptr inbounds nuw %struct.JsonObjectConstructor, ptr %91, i32 0, i32 5
  %93 = load i32, ptr %92, align 4
  %94 = call ptr @makeJsonConstructorExpr(ptr noundef %80, i32 noundef 1, ptr noundef %81, ptr noundef null, ptr noundef %82, i1 noundef zeroext %86, i1 noundef zeroext %90, i32 noundef %93)
  call void @llvm.lifetime.end.p0(i64 8, ptr %6) #8
  call void @llvm.lifetime.end.p0(i64 8, ptr %5) #8
  ret ptr %94
}