; Function Attrs: nounwind uwtable
define internal fastcc noundef ptr @transformJsonObjectConstructor(ptr noundef %0, ptr noundef nonnull readonly captures(none) %1) unnamed_addr #0 {
  %3 = getelementptr inbounds nuw i8, ptr %1, i64 8
  %4 = load ptr, ptr %3, align 8
  %.not = icmp eq ptr %4, null
  br i1 %.not, label %.loopexit, label %.preheader

.preheader:                                       ; preds = %2
  %5 = getelementptr inbounds nuw i8, ptr %4, i64 4
  %6 = load i32, ptr %5, align 4
  %.not2730 = icmp sgt i32 %6, 0
  br i1 %.not2730, label %.lr.ph, label %.loopexit

.lr.ph:                                           ; preds = %.preheader
  %7 = getelementptr inbounds nuw i8, ptr %4, i64 16
  br label %8

8:                                                ; preds = %.lr.ph, %8
  %indvars.iv = phi i64 [ 0, %.lr.ph ], [ %indvars.iv.next, %8 ]
  %.132 = phi ptr [ null, %.lr.ph ], [ %19, %8 ]
  %9 = load ptr, ptr %7, align 8
  %10 = getelementptr inbounds nuw %union.ListCell, ptr %9, i64 %indvars.iv
  %11 = load ptr, ptr %10, align 8
  %12 = getelementptr inbounds nuw i8, ptr %11, i64 8
  %13 = load ptr, ptr %12, align 8
  %14 = tail call fastcc ptr @transformExprRecurse(ptr noundef %0, ptr noundef %13)
  %15 = getelementptr inbounds nuw i8, ptr %11, i64 16
  %16 = load ptr, ptr %15, align 8
  %17 = tail call fastcc ptr @transformJsonValueExpr(ptr noundef %0, ptr noundef nonnull @.str.134, ptr noundef %16, i32 noundef 0, i32 noundef 0, i1 noundef zeroext false)
  %18 = tail call ptr @lappend(ptr noundef %.132, ptr noundef %14) #9
  %19 = tail call ptr @lappend(ptr noundef %18, ptr noundef %17) #9
  %indvars.iv.next = add nuw nsw i64 %indvars.iv, 1
  %20 = load i32, ptr %5, align 4
  %21 = sext i32 %20 to i64
  %.not27 = icmp slt i64 %indvars.iv.next, %21
  br i1 %.not27, label %8, label %.loopexit, !llvm.loop !11

.loopexit:                                        ; preds = %8, %.preheader, %2
  %.0 = phi ptr [ null, %2 ], [ null, %.preheader ], [ %19, %8 ]
  %22 = getelementptr inbounds nuw i8, ptr %1, i64 16
  %23 = load ptr, ptr %22, align 8
  %24 = tail call fastcc ptr @transformJsonOutput(ptr noundef %0, ptr noundef %23, i1 noundef zeroext true)
  %25 = getelementptr inbounds nuw i8, ptr %24, i64 16
  %26 = load i32, ptr %25, align 8
  %.not.i = icmp eq i32 %26, 0
  br i1 %.not.i, label %.preheader.i, label %transformJsonConstructorOutput.exit

.preheader.i:                                     ; preds = %.loopexit
  %.not23.i = icmp eq ptr %.0, null
  br i1 %.not23.i, label %.split.i, label %.lr.ph.i

.lr.ph.i:                                         ; preds = %.preheader.i
  %27 = getelementptr inbounds nuw i8, ptr %.0, i64 4
  %28 = getelementptr inbounds nuw i8, ptr %.0, i64 16
  %29 = load i32, ptr %27, align 4
  %30 = icmp sgt i32 %29, 0
  br i1 %30, label %.lr.ph34.i, label %.split.i

31:                                               ; preds = %.lr.ph34.i
  %indvars.iv.next.i = add nuw nsw i64 %indvars.iv.i, 1
  %32 = load i32, ptr %27, align 4
  %33 = sext i32 %32 to i64
  %34 = icmp slt i64 %indvars.iv.next.i, %33
  br i1 %34, label %.lr.ph34.i, label %.split.i

.lr.ph34.i:                                       ; preds = %.lr.ph.i, %31
  %indvars.iv.i = phi i64 [ %indvars.iv.next.i, %31 ], [ 0, %.lr.ph.i ]
  %35 = load ptr, ptr %28, align 8
  %36 = getelementptr inbounds nuw %union.ListCell, ptr %35, i64 %indvars.iv.i
  %37 = load ptr, ptr %36, align 8
  %38 = tail call i32 @exprType(ptr noundef %37) #9
  %.not30.i = icmp eq i32 %38, 3802
  br i1 %.not30.i, label %.split.i, label %31

.split.i:                                         ; preds = %.lr.ph34.i, %31, %.lr.ph.i, %.preheader.i
  %.sink39.i = phi i32 [ 114, %.lr.ph.i ], [ 114, %.preheader.i ], [ 114, %31 ], [ 3802, %.lr.ph34.i ]
  %.sink.i = phi i32 [ 1, %.lr.ph.i ], [ 1, %.preheader.i ], [ 1, %31 ], [ 2, %.lr.ph34.i ]
  store i32 %.sink39.i, ptr %25, align 8
  %39 = getelementptr inbounds nuw i8, ptr %24, i64 8
  %40 = load ptr, ptr %39, align 8
  %41 = getelementptr inbounds nuw i8, ptr %40, i64 4
  store i32 %.sink.i, ptr %41, align 4
  %42 = getelementptr inbounds nuw i8, ptr %24, i64 20
  store i32 -1, ptr %42, align 4
  br label %transformJsonConstructorOutput.exit

transformJsonConstructorOutput.exit:              ; preds = %.loopexit, %.split.i
  %43 = getelementptr inbounds nuw i8, ptr %1, i64 25
  %44 = load i8, ptr %43, align 1, !range !4, !noundef !5
  %45 = trunc nuw i8 %44 to i1
  %46 = getelementptr inbounds nuw i8, ptr %1, i64 24
  %47 = load i8, ptr %46, align 8, !range !4, !noundef !5
  %48 = trunc nuw i8 %47 to i1
  %49 = getelementptr inbounds nuw i8, ptr %1, i64 28
  %50 = load i32, ptr %49, align 4
  %51 = tail call fastcc ptr @makeJsonConstructorExpr(ptr noundef %0, i32 noundef 1, ptr noundef %.0, ptr noundef null, ptr noundef nonnull %24, i1 noundef zeroext %45, i1 noundef zeroext %48, i32 noundef %50)
  ret ptr %51
}